; Function Attrs: nounwind uwtable
define void @ff_cbs_bsf_generic_close(ptr noundef readonly captures(none) %0) local_unnamed_addr #0 {
  %2 = getelementptr inbounds nuw i8, ptr %0, i64 16
  %3 = load ptr, ptr %2, align 8, !tbaa !4
  %4 = getelementptr inbounds nuw i8, ptr %3, i64 32
  tail call void @ff_cbs_fragment_free(ptr noundef nonnull %4) #3
  %5 = getelementptr inbounds nuw i8, ptr %3, i64 16
  tail call void @ff_cbs_close(ptr noundef nonnull %5) #3
  %6 = getelementptr inbounds nuw i8, ptr %3, i64 24
  tail call void @ff_cbs_close(ptr noundef nonnull %6) #3
  ret void
}